target datalayout = "e-m:e-p270:32:32-p271:32:32-p272:64:64-i64:64-i128:128-f80:128-n8:16:32:64-S128"
target triple = "x86_64-pc-linux-gnu"

%struct.anon.0 = type { i32, ptr }

@.str.12 = private unnamed_addr constant [32 x i8] c"../openssl/test/property_test.c\00", align 1
@.str.70 = private unnamed_addr constant [36 x i8] c"store = ossl_method_store_new(NULL)\00", align 1
@.str.85 = private unnamed_addr constant [2 x i8] c"n\00", align 1
@.str.127 = private unnamed_addr constant [2 x i8] c"a\00", align 1
@.str.128 = private unnamed_addr constant [34 x i8] c"p = ossl_parse_query(NULL, ps, 1)\00", align 1
@.str.129 = private unnamed_addr constant [34 x i8] c"p = ossl_parse_property(NULL, ps)\00", align 1

; Function Attrs: nounwind uwtable
define internal i32 @test_property_parse_error(i32 noundef %0) #0 {
  %2 = alloca i32, align 4
  %3 = alloca ptr, align 8
  %4 = alloca ptr, align 8
  %5 = alloca i32, align 4
  %6 = alloca ptr, align 8
  store i32 %0, ptr %2, align 4, !tbaa !9
  call void @llvm.lifetime.start.p0(i64 8, ptr %3) #6
  call void @llvm.lifetime.start.p0(i64 8, ptr %4) #6
  store ptr null, ptr %4, align 8, !tbaa !13
  call void @llvm.lifetime.start.p0(i64 4, ptr %5) #6
  store i32 0, ptr %5, align 4, !tbaa !9
  call void @llvm.lifetime.start.p0(i64 8, ptr %6) #6
  %7 = call ptr @ossl_method_store_new(ptr noundef null)
  store ptr %7, ptr %3, align 8, !tbaa !4
  %8 = call i32 @test_ptr(ptr noundef @.str.12, i32 noundef 224, ptr noundef @.str.70, ptr noundef %7)
  %9 = icmp ne i32 %8, 0
  br i1 %9, label %10, label %13

10:                                               ; preds = %1
  %11 = call i32 (ptr, ...) @add_property_names(ptr noundef @.str.127, ptr noundef @.str.85, ptr noundef null)
  %12 = icmp ne i32 %11, 0
  br i1 %12, label %14, label %13

13:                                               ; preds = %10, %1
  br label %41

14:                                               ; preds = %10
  %15 = load i32, ptr %2, align 4, !tbaa !9
  %16 = sext i32 %15 to i64
  %17 = getelementptr inbounds [17 x %struct.anon.0], ptr @parse_error_tests, i64 0, i64 %16
  %18 = getelementptr inbounds nuw %struct.anon.0, ptr %17, i32 0, i32 1
  %19 = load ptr, ptr %18, align 8, !tbaa !20
  store ptr %19, ptr %6, align 8, !tbaa !22
  %20 = load i32, ptr %2, align 4, !tbaa !9
  %21 = sext i32 %20 to i64
  %22 = getelementptr inbounds [17 x %struct.anon.0], ptr @parse_error_tests, i64 0, i64 %21
  %23 = getelementptr inbounds nuw %struct.anon.0, ptr %22, i32 0, i32 0
  %24 = load i32, ptr %23, align 16, !tbaa !23
  %25 = icmp ne i32 %24, 0
  br i1 %25, label %26, label %33

26:                                               ; preds = %14
  %27 = load ptr, ptr %6, align 8, !tbaa !22
  %28 = call ptr @ossl_parse_query(ptr noundef null, ptr noundef %27, i32 noundef 1)
  store ptr %28, ptr %4, align 8, !tbaa !13
  %29 = call i32 @test_ptr_null(ptr noundef @.str.12, i32 noundef 229, ptr noundef @.str.128, ptr noundef %28)
  %30 = icmp ne i32 %29, 0
  br i1 %30, label %32, label %31

31:                                               ; preds = %26
  br label %41

32:                                               ; preds = %26
  br label %40

33:                                               ; preds = %14
  %34 = load ptr, ptr %6, align 8, !tbaa !22
  %35 = call ptr @ossl_parse_property(ptr noundef null, ptr noundef %34)
  store ptr %35, ptr %4, align 8, !tbaa !13
  %36 = call i32 @test_ptr_null(ptr noundef @.str.12, i32 noundef 231, ptr noundef @.str.129, ptr noundef %35)
  %37 = icmp ne i32 %36, 0
  br i1 %37, label %39, label %38

38:                                               ; preds = %33
  br label %41

39:                                               ; preds = %33
  br label %40

40:                                               ; preds = %39, %32
  store i32 1, ptr %5, align 4, !tbaa !9
  br label %41

41:                                               ; preds = %40, %38, %31, %13
  %42 = load ptr, ptr %4, align 8, !tbaa !13
  call void @ossl_property_free(ptr noundef %42)
  %43 = load ptr, ptr %3, align 8, !tbaa !4
  call void @ossl_method_store_free(ptr noundef %43)
  %44 = load i32, ptr %5, align 4, !tbaa !9
  call void @llvm.lifetime.end.p0(i64 8, ptr %6) #6
  call void @llvm.lifetime.end.p0(i64 4, ptr %5) #6
  call void @llvm.lifetime.end.p0(i64 8, ptr %4) #6
  call void @llvm.lifetime.end.p0(i64 8, ptr %3) #6
  ret i32 %44
}