; Function Attrs: nounwind uwtable
define internal range(i32 0, 2) i32 @test_property_parse_error(i32 noundef %0) #0 {
  %2 = tail call ptr @ossl_method_store_new(ptr noundef null) #6
  %3 = tail call i32 @test_ptr(ptr noundef nonnull @.str.12, i32 noundef 224, ptr noundef nonnull @.str.70, ptr noundef %2) #6
  %.not = icmp eq i32 %3, 0
  br i1 %.not, label %19, label %4

4:                                                ; preds = %1
  %5 = tail call i32 (ptr, ...) @add_property_names(ptr noundef nonnull @.str.127, ptr noundef nonnull @.str.85, ptr noundef null)
  %.not7 = icmp eq i32 %5, 0
  br i1 %.not7, label %19, label %6

6:                                                ; preds = %4
  %7 = sext i32 %0 to i64
  %8 = getelementptr inbounds [17 x %struct.anon.0], ptr @parse_error_tests, i64 0, i64 %7
  %9 = getelementptr inbounds nuw i8, ptr %8, i64 8
  %10 = load ptr, ptr %9, align 8, !tbaa !13
  %11 = load i32, ptr %8, align 16, !tbaa !15
  %.not8 = icmp eq i32 %11, 0
  br i1 %.not8, label %15, label %12

12:                                               ; preds = %6
  %13 = tail call ptr @ossl_parse_query(ptr noundef null, ptr noundef %10, i32 noundef 1) #6
  %14 = tail call i32 @test_ptr_null(ptr noundef nonnull @.str.12, i32 noundef 229, ptr noundef nonnull @.str.128, ptr noundef %13) #6
  %.not10 = icmp eq i32 %14, 0
  br i1 %.not10, label %19, label %18

15:                                               ; preds = %6
  %16 = tail call ptr @ossl_parse_property(ptr noundef null, ptr noundef %10) #6
  %17 = tail call i32 @test_ptr_null(ptr noundef nonnull @.str.12, i32 noundef 231, ptr noundef nonnull @.str.129, ptr noundef %16) #6
  %.not9 = icmp eq i32 %17, 0
  br i1 %.not9, label %19, label %18

18:                                               ; preds = %15, %12
  %.1 = phi ptr [ %13, %12 ], [ %16, %15 ]
  br label %19

19:                                               ; preds = %15, %12, %1, %4, %18
  %.06 = phi i32 [ 1, %18 ], [ 0, %12 ], [ 0, %15 ], [ 0, %4 ], [ 0, %1 ]
  %.0 = phi ptr [ %.1, %18 ], [ %13, %12 ], [ %16, %15 ], [ null, %4 ], [ null, %1 ]
  tail call void @ossl_property_free(ptr noundef %.0) #6
  tail call void @ossl_method_store_free(ptr noundef %2) #6
  ret i32 %.06
}